; Function Attrs: mustprogress uwtable
define dso_local void @_ZN7testing8internal24HasNewFatalFailureHelperC2Ev(ptr noundef nonnull align 8 dereferenceable(24) initializes((0, 9)) %0) unnamed_addr #3 align 2 personality ptr @__gxx_personality_v0 {
  store ptr getelementptr inbounds nuw inrange(-16, 24) (i8, ptr @_ZTVN7testing8internal24HasNewFatalFailureHelperE, i64 16), ptr %0, align 8, !tbaa !23
  %2 = getelementptr inbounds nuw i8, ptr %0, i64 8
  store i8 0, ptr %2, align 8, !tbaa !1711
  %3 = getelementptr inbounds nuw i8, ptr %0, i64 16
  %4 = load atomic i8, ptr @_ZGVZN7testing8UnitTest11GetInstanceEvE8instance acquire, align 8
  %5 = icmp eq i8 %4, 0
  br i1 %5, label %6, label %13, !prof !47

6:                                                ; preds = %1
  %7 = tail call i32 @__cxa_guard_acquire(ptr nonnull @_ZGVZN7testing8UnitTest11GetInstanceEvE8instance) #58
  %.not.i.i = icmp eq i32 %7, 0
  br i1 %.not.i.i, label %13, label %8

8:                                                ; preds = %6
  invoke void @_ZN7testing8UnitTestC2Ev(ptr noundef nonnull align 8 dereferenceable(72) @_ZZN7testing8UnitTest11GetInstanceEvE8instance)
          to label %9 unwind label %11

9:                                                ; preds = %8
  %10 = tail call i32 @__cxa_atexit(ptr nonnull @_ZN7testing8UnitTestD2Ev, ptr nonnull @_ZZN7testing8UnitTest11GetInstanceEvE8instance, ptr nonnull @__dso_handle) #58
  tail call void @__cxa_guard_release(ptr nonnull @_ZGVZN7testing8UnitTest11GetInstanceEvE8instance) #58
  br label %13

11:                                               ; preds = %8
  %12 = landingpad { ptr, i32 }
          cleanup
  br label %.body

13:                                               ; preds = %9, %6, %1
  %14 = load ptr, ptr getelementptr inbounds nuw (i8, ptr @_ZZN7testing8UnitTest11GetInstanceEvE8instance, i64 64), align 8, !tbaa !48
  %15 = getelementptr inbounds nuw i8, ptr %14, i64 144
  %16 = tail call noundef nonnull align 8 dereferenceable(8) ptr @_ZNK7testing8internal11ThreadLocalIPNS_31TestPartResultReporterInterfaceEE16GetOrCreateValueEv(ptr noundef nonnull align 8 dereferenceable(16) %15)
  %17 = load ptr, ptr %16, align 8, !tbaa !63
  store ptr %17, ptr %3, align 8, !tbaa !1713
  %18 = load atomic i8, ptr @_ZGVZN7testing8UnitTest11GetInstanceEvE8instance acquire, align 8
  %19 = icmp eq i8 %18, 0
  br i1 %19, label %20, label %27, !prof !47

20:                                               ; preds = %13
  %21 = tail call i32 @__cxa_guard_acquire(ptr nonnull @_ZGVZN7testing8UnitTest11GetInstanceEvE8instance) #58
  %.not.i.i2 = icmp eq i32 %21, 0
  br i1 %.not.i.i2, label %27, label %22

22:                                               ; preds = %20
  invoke void @_ZN7testing8UnitTestC2Ev(ptr noundef nonnull align 8 dereferenceable(72) @_ZZN7testing8UnitTest11GetInstanceEvE8instance)
          to label %23 unwind label %25

23:                                               ; preds = %22
  %24 = tail call i32 @__cxa_atexit(ptr nonnull @_ZN7testing8UnitTestD2Ev, ptr nonnull @_ZZN7testing8UnitTest11GetInstanceEvE8instance, ptr nonnull @__dso_handle) #58
  tail call void @__cxa_guard_release(ptr nonnull @_ZGVZN7testing8UnitTest11GetInstanceEvE8instance) #58
  br label %27

25:                                               ; preds = %22
  %26 = landingpad { ptr, i32 }
          cleanup
  br label %.body

27:                                               ; preds = %23, %20, %13
  %28 = load ptr, ptr getelementptr inbounds nuw (i8, ptr @_ZZN7testing8UnitTest11GetInstanceEvE8instance, i64 64), align 8, !tbaa !48
  %29 = getelementptr inbounds nuw i8, ptr %28, i64 144
  %30 = tail call noundef ptr @_ZNK7testing8internal11ThreadLocalIPNS_31TestPartResultReporterInterfaceEE16GetOrCreateValueEv(ptr noundef nonnull align 8 dereferenceable(16) %29)
  store ptr %0, ptr %30, align 8, !tbaa !63
  ret void

.body:                                            ; preds = %25, %11
  %eh.lpad-body = phi { ptr, i32 } [ %12, %11 ], [ %26, %25 ]
  tail call void @__cxa_guard_abort(ptr nonnull @_ZGVZN7testing8UnitTest11GetInstanceEvE8instance) #58
  resume { ptr, i32 } %eh.lpad-body
}